target datalayout = "e-m:e-p270:32:32-p271:32:32-p272:64:64-i64:64-i128:128-f80:128-n8:16:32:64-S128"
target triple = "x86_64-pc-linux-gnu"

%struct.PyStatus = type { i32, ptr, ptr, i32 }
%struct.PyConfig = type { i32, i32, i32, i32, i32, i32, i64, i32, i32, i32, i32, i32, i32, i32, ptr, i32, ptr, ptr, ptr, i32, %struct.PyWideStringList, %struct.PyWideStringList, %struct.PyWideStringList, %struct.PyWideStringList, i32, i32, i32, i32, i32, i32, i32, i32, i32, i32, i32, i32, i32, ptr, ptr, ptr, i32, i32, i32, i32, i32, ptr, ptr, ptr, ptr, i32, %struct.PyWideStringList, ptr, ptr, ptr, ptr, ptr, ptr, ptr, i32, ptr, ptr, ptr, ptr, i32, i32, i32 }
%struct.PyWideStringList = type { i64, ptr }

@.str = private unnamed_addr constant [22 x i8] c"Run filename expected\00", align 1

; Function Attrs: nounwind uwtable
define hidden i32 @main(i32 noundef %0, ptr noundef %1) #0 {
  %3 = alloca i32, align 4
  %4 = alloca i32, align 4
  %5 = alloca ptr, align 8
  %6 = alloca %struct.PyStatus, align 8
  %7 = alloca %struct.PyConfig, align 8
  %8 = alloca %struct.PyStatus, align 8
  %9 = alloca %struct.PyStatus, align 8
  %10 = alloca %struct.PyStatus, align 8
  %11 = alloca %struct.PyStatus, align 8
  %12 = alloca i32, align 4
  store i32 0, ptr %3, align 4
  store i32 %0, ptr %4, align 4, !tbaa !4
  store ptr %1, ptr %5, align 8, !tbaa !8
  call void @llvm.lifetime.start.p0(i64 32, ptr %6) #5
  call void @llvm.lifetime.start.p0(i64 448, ptr %7) #5
  call void @PyConfig_InitIsolatedConfig(ptr noundef %7)
  %13 = getelementptr inbounds nuw %struct.PyConfig, ptr %7, i32 0, i32 44
  store i32 0, ptr %13, align 8, !tbaa !11
  %14 = getelementptr inbounds nuw %struct.PyConfig, ptr %7, i32 0, i32 19
  store i32 1, ptr %14, align 8, !tbaa !17
  %15 = getelementptr inbounds nuw %struct.PyConfig, ptr %7, i32 0, i32 1
  store i32 0, ptr %15, align 4, !tbaa !18
  %16 = getelementptr inbounds nuw %struct.PyConfig, ptr %7, i32 0, i32 41
  store i32 0, ptr %16, align 4, !tbaa !19
  call void @llvm.lifetime.start.p0(i64 32, ptr %8) #5
  %17 = load i32, ptr %4, align 4, !tbaa !4
  %18 = sext i32 %17 to i64
  %19 = load ptr, ptr %5, align 8, !tbaa !8
  call void @PyConfig_SetBytesArgv(ptr dead_on_unwind writable sret(%struct.PyStatus) align 8 %8, ptr noundef %7, i64 noundef %18, ptr noundef %19)
  call void @llvm.memcpy.p0.p0.i64(ptr align 8 %6, ptr align 8 %8, i64 32, i1 false), !tbaa.struct !20
  call void @llvm.lifetime.end.p0(i64 32, ptr %8) #5
  %20 = call i32 @PyStatus_Exception(ptr noundef byval(%struct.PyStatus) align 8 %6)
  %21 = icmp ne i32 %20, 0
  br i1 %21, label %22, label %23

22:                                               ; preds = %2
  br label %58

23:                                               ; preds = %2
  call void @llvm.lifetime.start.p0(i64 32, ptr %9) #5
  call void @PyConfig_Read(ptr dead_on_unwind writable sret(%struct.PyStatus) align 8 %9, ptr noundef %7)
  call void @llvm.memcpy.p0.p0.i64(ptr align 8 %6, ptr align 8 %9, i64 32, i1 false), !tbaa.struct !20
  call void @llvm.lifetime.end.p0(i64 32, ptr %9) #5
  %24 = getelementptr inbounds nuw %struct.PyConfig, ptr %7, i32 0, i32 61
  %25 = load ptr, ptr %24, align 8, !tbaa !23
  %26 = icmp eq ptr %25, null
  br i1 %26, label %27, label %28

27:                                               ; preds = %23
  call void @llvm.lifetime.start.p0(i64 32, ptr %10) #5
  call void @PyStatus_Error(ptr dead_on_unwind writable sret(%struct.PyStatus) align 8 %10, ptr noundef @.str)
  call void @llvm.memcpy.p0.p0.i64(ptr align 8 %6, ptr align 8 %10, i64 32, i1 false), !tbaa.struct !20
  call void @llvm.lifetime.end.p0(i64 32, ptr %10) #5
  br label %58

28:                                               ; preds = %23
  br label %29

29:                                               ; preds = %28
  %30 = getelementptr inbounds nuw %struct.PyConfig, ptr %7, i32 0, i32 55
  %31 = load ptr, ptr %30, align 8, !tbaa !24
  call void @PyMem_RawFree(ptr noundef %31)
  %32 = getelementptr inbounds nuw %struct.PyConfig, ptr %7, i32 0, i32 55
  store ptr null, ptr %32, align 8, !tbaa !24
  br label %33

33:                                               ; preds = %29
  br label %34

34:                                               ; preds = %33
  br label %35

35:                                               ; preds = %34
  %36 = getelementptr inbounds nuw %struct.PyConfig, ptr %7, i32 0, i32 54
  %37 = load ptr, ptr %36, align 8, !tbaa !25
  call void @PyMem_RawFree(ptr noundef %37)
  %38 = getelementptr inbounds nuw %struct.PyConfig, ptr %7, i32 0, i32 54
  store ptr null, ptr %38, align 8, !tbaa !25
  br label %39

39:                                               ; preds = %35
  br label %40

40:                                               ; preds = %39
  br label %41

41:                                               ; preds = %40
  %42 = getelementptr inbounds nuw %struct.PyConfig, ptr %7, i32 0, i32 57
  %43 = load ptr, ptr %42, align 8, !tbaa !26
  call void @PyMem_RawFree(ptr noundef %43)
  %44 = getelementptr inbounds nuw %struct.PyConfig, ptr %7, i32 0, i32 57
  store ptr null, ptr %44, align 8, !tbaa !26
  br label %45

45:                                               ; preds = %41
  br label %46

46:                                               ; preds = %45
  br label %47

47:                                               ; preds = %46
  %48 = getelementptr inbounds nuw %struct.PyConfig, ptr %7, i32 0, i32 56
  %49 = load ptr, ptr %48, align 8, !tbaa !27
  call void @PyMem_RawFree(ptr noundef %49)
  %50 = getelementptr inbounds nuw %struct.PyConfig, ptr %7, i32 0, i32 56
  store ptr null, ptr %50, align 8, !tbaa !27
  br label %51

51:                                               ; preds = %47
  br label %52

52:                                               ; preds = %51
  call void @llvm.lifetime.start.p0(i64 32, ptr %11) #5
  call void @Py_InitializeFromConfig(ptr dead_on_unwind writable sret(%struct.PyStatus) align 8 %11, ptr noundef %7)
  call void @llvm.memcpy.p0.p0.i64(ptr align 8 %6, ptr align 8 %11, i64 32, i1 false), !tbaa.struct !20
  call void @llvm.lifetime.end.p0(i64 32, ptr %11) #5
  %53 = call i32 @PyStatus_Exception(ptr noundef byval(%struct.PyStatus) align 8 %6)
  %54 = icmp ne i32 %53, 0
  br i1 %54, label %55, label %56

55:                                               ; preds = %52
  br label %58

56:                                               ; preds = %52
  call void @PyConfig_Clear(ptr noundef %7)
  %57 = call i32 @Py_RunMain()
  store i32 %57, ptr %3, align 4
  store i32 1, ptr %12, align 4
  br label %65

58:                                               ; preds = %55, %27, %22
  call void @PyConfig_Clear(ptr noundef %7)
  %59 = call i32 @PyStatus_IsExit(ptr noundef byval(%struct.PyStatus) align 8 %6)
  %60 = icmp ne i32 %59, 0
  br i1 %60, label %61, label %64

61:                                               ; preds = %58
  %62 = getelementptr inbounds nuw %struct.PyStatus, ptr %6, i32 0, i32 3
  %63 = load i32, ptr %62, align 8, !tbaa !28
  store i32 %63, ptr %3, align 4
  store i32 1, ptr %12, align 4
  br label %65

64:                                               ; preds = %58
  call void @Py_ExitStatusException(ptr noundef byval(%struct.PyStatus) align 8 %6) #6
  unreachable

65:                                               ; preds = %61, %56
  call void @llvm.lifetime.end.p0(i64 448, ptr %7) #5
  call void @llvm.lifetime.end.p0(i64 32, ptr %6) #5
  %66 = load i32, ptr %3, align 4
  ret i32 %66
}