; Function Attrs: nounwind uwtable
define hidden i32 @main(i32 noundef %0, ptr noundef %1) local_unnamed_addr #0 {
  %3 = alloca %struct.PyStatus, align 8
  %4 = alloca %struct.PyConfig, align 8
  %5 = alloca %struct.PyStatus, align 8
  %6 = alloca %struct.PyStatus, align 8
  %7 = alloca %struct.PyStatus, align 8
  call void @llvm.lifetime.start.p0(i64 32, ptr nonnull %3) #5
  call void @llvm.lifetime.start.p0(i64 448, ptr nonnull %4) #5
  call void @PyConfig_InitIsolatedConfig(ptr noundef nonnull %4) #5
  %8 = getelementptr inbounds nuw i8, ptr %4, i64 272
  store i32 0, ptr %8, align 8, !tbaa !4
  %9 = getelementptr inbounds nuw i8, ptr %4, i64 104
  store i32 1, ptr %9, align 8, !tbaa !14
  %10 = getelementptr inbounds nuw i8, ptr %4, i64 4
  store i32 0, ptr %10, align 4, !tbaa !15
  %11 = getelementptr inbounds nuw i8, ptr %4, i64 260
  store i32 0, ptr %11, align 4, !tbaa !16
  %12 = sext i32 %0 to i64
  call void @PyConfig_SetBytesArgv(ptr dead_on_unwind nonnull writable sret(%struct.PyStatus) align 8 %3, ptr noundef nonnull %4, i64 noundef %12, ptr noundef %1) #5
  %13 = call i32 @PyStatus_Exception(ptr noundef nonnull byval(%struct.PyStatus) align 8 %3) #5
  %.not = icmp eq i32 %13, 0
  br i1 %.not, label %14, label %31

14:                                               ; preds = %2
  call void @llvm.lifetime.start.p0(i64 32, ptr nonnull %5) #5
  call void @PyConfig_Read(ptr dead_on_unwind nonnull writable sret(%struct.PyStatus) align 8 %5, ptr noundef nonnull %4) #5
  call void @llvm.memcpy.p0.p0.i64(ptr noundef nonnull align 8 dereferenceable(32) %3, ptr noundef nonnull align 8 dereferenceable(32) %5, i64 32, i1 false), !tbaa.struct !17
  call void @llvm.lifetime.end.p0(i64 32, ptr nonnull %5) #5
  %15 = getelementptr inbounds nuw i8, ptr %4, i64 416
  %16 = load ptr, ptr %15, align 8, !tbaa !21
  %17 = icmp eq ptr %16, null
  br i1 %17, label %18, label %19

18:                                               ; preds = %14
  call void @llvm.lifetime.start.p0(i64 32, ptr nonnull %6) #5
  call void @PyStatus_Error(ptr dead_on_unwind nonnull writable sret(%struct.PyStatus) align 8 %6, ptr noundef nonnull @.str) #5
  call void @llvm.memcpy.p0.p0.i64(ptr noundef nonnull align 8 dereferenceable(32) %3, ptr noundef nonnull align 8 dereferenceable(32) %6, i64 32, i1 false), !tbaa.struct !17
  call void @llvm.lifetime.end.p0(i64 32, ptr nonnull %6) #5
  br label %31

19:                                               ; preds = %14
  %20 = getelementptr inbounds nuw i8, ptr %4, i64 368
  %21 = load ptr, ptr %20, align 8, !tbaa !22
  call void @PyMem_RawFree(ptr noundef %21) #5
  store ptr null, ptr %20, align 8, !tbaa !22
  %22 = getelementptr inbounds nuw i8, ptr %4, i64 360
  %23 = load ptr, ptr %22, align 8, !tbaa !23
  call void @PyMem_RawFree(ptr noundef %23) #5
  store ptr null, ptr %22, align 8, !tbaa !23
  %24 = getelementptr inbounds nuw i8, ptr %4, i64 384
  %25 = load ptr, ptr %24, align 8, !tbaa !24
  call void @PyMem_RawFree(ptr noundef %25) #5
  store ptr null, ptr %24, align 8, !tbaa !24
  %26 = getelementptr inbounds nuw i8, ptr %4, i64 376
  %27 = load ptr, ptr %26, align 8, !tbaa !25
  call void @PyMem_RawFree(ptr noundef %27) #5
  store ptr null, ptr %26, align 8, !tbaa !25
  call void @llvm.lifetime.start.p0(i64 32, ptr nonnull %7) #5
  call void @Py_InitializeFromConfig(ptr dead_on_unwind nonnull writable sret(%struct.PyStatus) align 8 %7, ptr noundef nonnull %4) #5
  call void @llvm.memcpy.p0.p0.i64(ptr noundef nonnull align 8 dereferenceable(32) %3, ptr noundef nonnull align 8 dereferenceable(32) %7, i64 32, i1 false), !tbaa.struct !17
  call void @llvm.lifetime.end.p0(i64 32, ptr nonnull %7) #5
  %28 = call i32 @PyStatus_Exception(ptr noundef nonnull byval(%struct.PyStatus) align 8 %3) #5
  %.not2 = icmp eq i32 %28, 0
  br i1 %.not2, label %29, label %31

29:                                               ; preds = %19
  call void @PyConfig_Clear(ptr noundef nonnull %4) #5
  %30 = call i32 @Py_RunMain() #5
  br label %37

31:                                               ; preds = %19, %2, %18
  call void @PyConfig_Clear(ptr noundef nonnull %4) #5
  %32 = call i32 @PyStatus_IsExit(ptr noundef nonnull byval(%struct.PyStatus) align 8 %3) #5
  %.not3 = icmp eq i32 %32, 0
  br i1 %.not3, label %36, label %33

33:                                               ; preds = %31
  %34 = getelementptr inbounds nuw i8, ptr %3, i64 24
  %35 = load i32, ptr %34, align 8, !tbaa !26
  br label %37

36:                                               ; preds = %31
  call void @Py_ExitStatusException(ptr noundef nonnull byval(%struct.PyStatus) align 8 %3) #6
  unreachable

37:                                               ; preds = %33, %29
  %.0 = phi i32 [ %35, %33 ], [ %30, %29 ]
  call void @llvm.lifetime.end.p0(i64 448, ptr nonnull %4) #5
  call void @llvm.lifetime.end.p0(i64 32, ptr nonnull %3) #5
  ret i32 %.0
}